; Function Attrs: mustprogress nofree norecurse nosync nounwind memory(readwrite, inaccessiblemem: none) uwtable
define dso_local void @_ZN23btReducedDeformableBody21updateModesByRotationERK11btMatrix3x3(ptr noundef nonnull readonly align 8 captures(none) dereferenceable(3176) %0, ptr noundef nonnull readonly align 4 captures(none) dereferenceable(48) %1) local_unnamed_addr #6 align 2 {
  %3 = getelementptr inbounds nuw i8, ptr %0, i64 2712
  %4 = load i32, ptr %3, align 8, !tbaa !132
  %5 = icmp sgt i32 %4, 0
  br i1 %5, label %.preheader.lr.ph, label %._crit_edge24

.preheader.lr.ph:                                 ; preds = %2
  %6 = getelementptr inbounds nuw i8, ptr %0, i64 2716
  %7 = load i32, ptr %6, align 4, !tbaa !133
  %8 = icmp sgt i32 %7, 0
  %9 = getelementptr inbounds nuw i8, ptr %0, i64 2736
  %10 = load ptr, ptr %9, align 8
  %11 = getelementptr inbounds nuw i8, ptr %1, i64 4
  %12 = getelementptr inbounds nuw i8, ptr %1, i64 8
  %13 = getelementptr inbounds nuw i8, ptr %1, i64 16
  %14 = getelementptr inbounds nuw i8, ptr %1, i64 20
  %15 = getelementptr inbounds nuw i8, ptr %1, i64 24
  %16 = getelementptr inbounds nuw i8, ptr %1, i64 32
  %17 = getelementptr inbounds nuw i8, ptr %1, i64 36
  %18 = getelementptr inbounds nuw i8, ptr %1, i64 40
  br i1 %8, label %.preheader.us.preheader, label %._crit_edge24

.preheader.us.preheader:                          ; preds = %.preheader.lr.ph
  %wide.trip.count29 = zext nneg i32 %4 to i64
  %wide.trip.count = zext nneg i32 %7 to i64
  br label %.preheader.us

.preheader.us:                                    ; preds = %.preheader.us.preheader, %._crit_edge.us
  %indvars.iv = phi i64 [ 0, %.preheader.us.preheader ], [ %indvars.iv.next, %._crit_edge.us ]
  %19 = getelementptr inbounds nuw %class.btAlignedObjectArray.6, ptr %10, i64 %indvars.iv, i32 4
  %20 = load ptr, ptr %19, align 8, !tbaa !120
  %invariant.gep.us = getelementptr inbounds nuw i8, ptr %20, i64 4
  %invariant.gep21.us = getelementptr inbounds nuw i8, ptr %20, i64 8
  br label %21

21:                                               ; preds = %.preheader.us, %21
  %indvar = phi i64 [ 0, %.preheader.us ], [ %indvar.next, %21 ]
  %22 = mul nuw nsw i64 %indvar, 12
  %scevgep = getelementptr i8, ptr %20, i64 %22
  %23 = mul nuw nsw i64 %indvar, 3
  %24 = getelementptr inbounds nuw float, ptr %20, i64 %23
  %gep.us = getelementptr inbounds nuw float, ptr %invariant.gep.us, i64 %23
  %gep22.us = getelementptr inbounds nuw float, ptr %invariant.gep21.us, i64 %23
  %25 = load float, ptr %24, align 4, !tbaa !138
  %26 = load float, ptr %gep.us, align 4, !tbaa !138
  %27 = load float, ptr %gep22.us, align 4, !tbaa !138
  %28 = load float, ptr %1, align 4, !tbaa !138
  %29 = load float, ptr %11, align 4, !tbaa !138
  %30 = fmul float %26, %29
  %31 = tail call float @llvm.fmuladd.f32(float %28, float %25, float %30)
  %32 = load float, ptr %12, align 4, !tbaa !138
  %33 = tail call noundef float @llvm.fmuladd.f32(float %32, float %27, float %31)
  %34 = load float, ptr %13, align 4, !tbaa !138
  %35 = load float, ptr %14, align 4, !tbaa !138
  %36 = fmul float %26, %35
  %37 = tail call float @llvm.fmuladd.f32(float %34, float %25, float %36)
  %38 = load float, ptr %15, align 4, !tbaa !138
  %39 = tail call noundef float @llvm.fmuladd.f32(float %38, float %27, float %37)
  %40 = load float, ptr %16, align 4, !tbaa !138
  %41 = load float, ptr %17, align 4, !tbaa !138
  %42 = fmul float %26, %41
  %43 = tail call float @llvm.fmuladd.f32(float %40, float %25, float %42)
  %44 = load float, ptr %18, align 4, !tbaa !138
  %45 = tail call noundef float @llvm.fmuladd.f32(float %44, float %27, float %43)
  %.sroa.0.0.vec.insert.i.us = insertelement <2 x float> poison, float %33, i64 0
  %.sroa.0.4.vec.insert.i.us = insertelement <2 x float> %.sroa.0.0.vec.insert.i.us, float %39, i64 1
  store <2 x float> %.sroa.0.4.vec.insert.i.us, ptr %scevgep, align 4, !tbaa !138
  %.sroa.6.0.scevgep.sroa_idx = getelementptr inbounds nuw i8, ptr %scevgep, i64 8
  store float %45, ptr %.sroa.6.0.scevgep.sroa_idx, align 4, !tbaa !138
  %indvar.next = add nuw nsw i64 %indvar, 1
  %exitcond.not = icmp eq i64 %indvar.next, %wide.trip.count
  br i1 %exitcond.not, label %._crit_edge.us, label %21, !llvm.loop !212

._crit_edge.us:                                   ; preds = %21
  %indvars.iv.next = add nuw nsw i64 %indvars.iv, 1
  %exitcond30.not = icmp eq i64 %indvars.iv.next, %wide.trip.count29
  br i1 %exitcond30.not, label %._crit_edge24, label %.preheader.us, !llvm.loop !213

._crit_edge24:                                    ; preds = %._crit_edge.us, %.preheader.lr.ph, %2
  ret void
}